; Function Attrs: mustprogress nounwind uwtable
define hidden void @_ZN20ShenandoahBarrierSet17on_thread_destroyEP6Thread(ptr nocapture nonnull readnone align 8 %0, ptr noundef %1) unnamed_addr #0 align 2 {
  %3 = getelementptr inbounds i8, ptr %1, i64 72
  %4 = load ptr, ptr %3, align 8
  %.not.i.i = icmp eq ptr %4, null
  br i1 %.not.i.i, label %_ZN25ShenandoahThreadLocalData7destroyEP6Thread.exit, label %5

5:                                                ; preds = %2
  tail call void @_Z8FreeHeapPv(ptr noundef nonnull %4) #12
  br label %_ZN25ShenandoahThreadLocalData7destroyEP6Thread.exit

_ZN25ShenandoahThreadLocalData7destroyEP6Thread.exit: ; preds = %2, %5
  %6 = getelementptr inbounds i8, ptr %1, i64 48
  tail call void @_ZN8PtrQueueD2Ev(ptr noundef nonnull align 8 dereferenceable(16) %6) #12
  ret void
}